target datalayout = "e-m:e-p270:32:32-p271:32:32-p272:64:64-i64:64-i128:128-f80:128-n8:16:32:64-S128"
target triple = "x86_64-pc-linux-gnu"

%struct.XYRemap = type { [4 x [4 x i16]], [4 x [4 x i16]], [4 x [4 x float]] }

; Function Attrs: inlinehint nounwind uwtable
define internal void @calculate_bicubic_coeffs(float noundef %0, ptr noundef %1) #8 {
  %3 = alloca float, align 4
  %4 = alloca ptr, align 8
  %5 = alloca float, align 4
  %6 = alloca float, align 4
  store float %0, ptr %3, align 4, !tbaa !99
  store ptr %1, ptr %4, align 8, !tbaa !188
  call void @llvm.lifetime.start.p0(i64 4, ptr %5) #13
  %7 = load float, ptr %3, align 4, !tbaa !99
  %8 = load float, ptr %3, align 4, !tbaa !99
  %9 = fmul nsz float %7, %8
  store float %9, ptr %5, align 4, !tbaa !99
  call void @llvm.lifetime.start.p0(i64 4, ptr %6) #13
  %10 = load float, ptr %3, align 4, !tbaa !99
  %11 = load float, ptr %3, align 4, !tbaa !99
  %12 = fmul nsz float %10, %11
  %13 = load float, ptr %3, align 4, !tbaa !99
  %14 = fmul nsz float %12, %13
  store float %14, ptr %6, align 4, !tbaa !99
  %15 = load float, ptr %3, align 4, !tbaa !99
  %16 = fneg nsz float %15
  %17 = fdiv nsz float %16, 3.000000e+00
  %18 = load float, ptr %5, align 4, !tbaa !99
  %19 = fdiv nsz float %18, 2.000000e+00
  %20 = fadd nsz float %17, %19
  %21 = load float, ptr %6, align 4, !tbaa !99
  %22 = fdiv nsz float %21, 6.000000e+00
  %23 = fsub nsz float %20, %22
  %24 = load ptr, ptr %4, align 8, !tbaa !188
  %25 = getelementptr inbounds float, ptr %24, i64 0
  store float %23, ptr %25, align 4, !tbaa !99
  %26 = load float, ptr %3, align 4, !tbaa !99
  %27 = fdiv nsz float %26, 2.000000e+00
  %28 = fsub nsz float 1.000000e+00, %27
  %29 = load float, ptr %5, align 4, !tbaa !99
  %30 = fsub nsz float %28, %29
  %31 = load float, ptr %6, align 4, !tbaa !99
  %32 = fdiv nsz float %31, 2.000000e+00
  %33 = fadd nsz float %30, %32
  %34 = load ptr, ptr %4, align 8, !tbaa !188
  %35 = getelementptr inbounds float, ptr %34, i64 1
  store float %33, ptr %35, align 4, !tbaa !99
  %36 = load float, ptr %3, align 4, !tbaa !99
  %37 = load float, ptr %5, align 4, !tbaa !99
  %38 = fdiv nsz float %37, 2.000000e+00
  %39 = fadd nsz float %36, %38
  %40 = load float, ptr %6, align 4, !tbaa !99
  %41 = fdiv nsz float %40, 2.000000e+00
  %42 = fsub nsz float %39, %41
  %43 = load ptr, ptr %4, align 8, !tbaa !188
  %44 = getelementptr inbounds float, ptr %43, i64 2
  store float %42, ptr %44, align 4, !tbaa !99
  %45 = load float, ptr %3, align 4, !tbaa !99
  %46 = fneg nsz float %45
  %47 = fdiv nsz float %46, 6.000000e+00
  %48 = load float, ptr %6, align 4, !tbaa !99
  %49 = fdiv nsz float %48, 6.000000e+00
  %50 = fadd nsz float %47, %49
  %51 = load ptr, ptr %4, align 8, !tbaa !188
  %52 = getelementptr inbounds float, ptr %51, i64 3
  store float %50, ptr %52, align 4, !tbaa !99
  call void @llvm.lifetime.end.p0(i64 4, ptr %6) #13
  call void @llvm.lifetime.end.p0(i64 4, ptr %5) #13
  ret void
}

; Function Attrs: nounwind uwtable
define internal void @bicubic_kernel(float noundef %0, float noundef %1, ptr noundef %2, ptr noundef %3, ptr noundef %4, ptr noundef %5) #0 {
  %7 = alloca float, align 4
  %8 = alloca float, align 4
  %9 = alloca ptr, align 8
  %10 = alloca ptr, align 8
  %11 = alloca ptr, align 8
  %12 = alloca ptr, align 8
  %13 = alloca [4 x float], align 16
  %14 = alloca [4 x float], align 16
  %15 = alloca i32, align 4
  %16 = alloca i32, align 4
  %17 = alloca i32, align 4
  store float %0, ptr %7, align 4, !tbaa !99
  store float %1, ptr %8, align 4, !tbaa !99
  store ptr %2, ptr %9, align 8, !tbaa !134
  store ptr %3, ptr %10, align 8, !tbaa !21
  store ptr %4, ptr %11, align 8, !tbaa !21
  store ptr %5, ptr %12, align 8, !tbaa !21
  call void @llvm.lifetime.start.p0(i64 16, ptr %13) #13
  call void @llvm.lifetime.start.p0(i64 16, ptr %14) #13
  %18 = load float, ptr %7, align 4, !tbaa !99
  %19 = getelementptr inbounds [4 x float], ptr %13, i64 0, i64 0
  call void @calculate_bicubic_coeffs(float noundef %18, ptr noundef %19)
  %20 = load float, ptr %8, align 4, !tbaa !99
  %21 = getelementptr inbounds [4 x float], ptr %14, i64 0, i64 0
  call void @calculate_bicubic_coeffs(float noundef %20, ptr noundef %21)
  call void @llvm.lifetime.start.p0(i64 4, ptr %15) #13
  store i32 0, ptr %15, align 4, !tbaa !9
  br label %22

22:                                               ; preds = %87, %6
  %23 = load i32, ptr %15, align 4, !tbaa !9
  %24 = icmp slt i32 %23, 4
  br i1 %24, label %26, label %25

25:                                               ; preds = %22
  store i32 2, ptr %16, align 4
  call void @llvm.lifetime.end.p0(i64 4, ptr %15) #13
  br label %90

26:                                               ; preds = %22
  call void @llvm.lifetime.start.p0(i64 4, ptr %17) #13
  store i32 0, ptr %17, align 4, !tbaa !9
  br label %27

27:                                               ; preds = %83, %26
  %28 = load i32, ptr %17, align 4, !tbaa !9
  %29 = icmp slt i32 %28, 4
  br i1 %29, label %31, label %30

30:                                               ; preds = %27
  store i32 5, ptr %16, align 4
  call void @llvm.lifetime.end.p0(i64 4, ptr %17) #13
  br label %86

31:                                               ; preds = %27
  %32 = load ptr, ptr %9, align 8, !tbaa !134
  %33 = getelementptr inbounds nuw %struct.XYRemap, ptr %32, i32 0, i32 0
  %34 = load i32, ptr %15, align 4, !tbaa !9
  %35 = sext i32 %34 to i64
  %36 = getelementptr inbounds [4 x [4 x i16]], ptr %33, i64 0, i64 %35
  %37 = load i32, ptr %17, align 4, !tbaa !9
  %38 = sext i32 %37 to i64
  %39 = getelementptr inbounds [4 x i16], ptr %36, i64 0, i64 %38
  %40 = load i16, ptr %39, align 2, !tbaa !23
  %41 = load ptr, ptr %10, align 8, !tbaa !21
  %42 = load i32, ptr %15, align 4, !tbaa !9
  %43 = mul nsw i32 %42, 4
  %44 = load i32, ptr %17, align 4, !tbaa !9
  %45 = add nsw i32 %43, %44
  %46 = sext i32 %45 to i64
  %47 = getelementptr inbounds i16, ptr %41, i64 %46
  store i16 %40, ptr %47, align 2, !tbaa !23
  %48 = load ptr, ptr %9, align 8, !tbaa !134
  %49 = getelementptr inbounds nuw %struct.XYRemap, ptr %48, i32 0, i32 1
  %50 = load i32, ptr %15, align 4, !tbaa !9
  %51 = sext i32 %50 to i64
  %52 = getelementptr inbounds [4 x [4 x i16]], ptr %49, i64 0, i64 %51
  %53 = load i32, ptr %17, align 4, !tbaa !9
  %54 = sext i32 %53 to i64
  %55 = getelementptr inbounds [4 x i16], ptr %52, i64 0, i64 %54
  %56 = load i16, ptr %55, align 2, !tbaa !23
  %57 = load ptr, ptr %11, align 8, !tbaa !21
  %58 = load i32, ptr %15, align 4, !tbaa !9
  %59 = mul nsw i32 %58, 4
  %60 = load i32, ptr %17, align 4, !tbaa !9
  %61 = add nsw i32 %59, %60
  %62 = sext i32 %61 to i64
  %63 = getelementptr inbounds i16, ptr %57, i64 %62
  store i16 %56, ptr %63, align 2, !tbaa !23
  %64 = load i32, ptr %17, align 4, !tbaa !9
  %65 = sext i32 %64 to i64
  %66 = getelementptr inbounds [4 x float], ptr %13, i64 0, i64 %65
  %67 = load float, ptr %66, align 4, !tbaa !99
  %68 = load i32, ptr %15, align 4, !tbaa !9
  %69 = sext i32 %68 to i64
  %70 = getelementptr inbounds [4 x float], ptr %14, i64 0, i64 %69
  %71 = load float, ptr %70, align 4, !tbaa !99
  %72 = fmul nsz float %67, %71
  %73 = fmul nsz float %72, 1.638500e+04
  %74 = call i64 @llvm.lrint.i64.f32(float %73)
  %75 = trunc i64 %74 to i16
  %76 = load ptr, ptr %12, align 8, !tbaa !21
  %77 = load i32, ptr %15, align 4, !tbaa !9
  %78 = mul nsw i32 %77, 4
  %79 = load i32, ptr %17, align 4, !tbaa !9
  %80 = add nsw i32 %78, %79
  %81 = sext i32 %80 to i64
  %82 = getelementptr inbounds i16, ptr %76, i64 %81
  store i16 %75, ptr %82, align 2, !tbaa !23
  br label %83

83:                                               ; preds = %31
  %84 = load i32, ptr %17, align 4, !tbaa !9
  %85 = add nsw i32 %84, 1
  store i32 %85, ptr %17, align 4, !tbaa !9
  br label %27, !llvm.loop !168

86:                                               ; preds = %30
  br label %87

87:                                               ; preds = %86
  %88 = load i32, ptr %15, align 4, !tbaa !9
  %89 = add nsw i32 %88, 1
  store i32 %89, ptr %15, align 4, !tbaa !9
  br label %22, !llvm.loop !169

90:                                               ; preds = %25
  call void @llvm.lifetime.end.p0(i64 16, ptr %14) #13
  call void @llvm.lifetime.end.p0(i64 16, ptr %13) #13
  ret void
}