; Function Attrs: nofree norecurse nosync nounwind memory(argmem: readwrite) uwtable
define internal void @bicubic_kernel(float noundef %0, float noundef %1, ptr noundef readonly captures(none) %2, ptr noundef writeonly captures(none) %3, ptr noundef writeonly captures(none) %4, ptr noundef writeonly captures(none) %5) #1 {
  %7 = alloca [4 x float], align 16
  %8 = alloca [4 x float], align 16
  call void @llvm.lifetime.start.p0(i64 16, ptr nonnull %7) #16
  call void @llvm.lifetime.start.p0(i64 16, ptr nonnull %8) #16
  %9 = fmul nsz float %0, %0
  %10 = fmul nsz float %0, %9
  %11 = fdiv nsz float %0, 3.000000e+00
  %12 = fmul nsz float %9, 5.000000e-01
  %13 = fsub nsz float %12, %11
  %14 = fdiv nsz float %10, 6.000000e+00
  %15 = fsub nsz float %13, %14
  store float %15, ptr %7, align 16, !tbaa !49
  %16 = fmul nsz float %0, 5.000000e-01
  %17 = fsub nsz float 1.000000e+00, %16
  %18 = fsub nsz float %17, %9
  %19 = fmul nsz float %10, 5.000000e-01
  %20 = fadd nsz float %18, %19
  %21 = getelementptr inbounds nuw i8, ptr %7, i64 4
  store float %20, ptr %21, align 4, !tbaa !49
  %22 = fadd nsz float %0, %12
  %23 = fsub nsz float %22, %19
  %24 = getelementptr inbounds nuw i8, ptr %7, i64 8
  store float %23, ptr %24, align 8, !tbaa !49
  %25 = fdiv nsz float %0, 6.000000e+00
  %26 = fsub nsz float %14, %25
  %27 = getelementptr inbounds nuw i8, ptr %7, i64 12
  store float %26, ptr %27, align 4, !tbaa !49
  %28 = fmul nsz float %1, %1
  %29 = fmul nsz float %1, %28
  %30 = fdiv nsz float %1, 3.000000e+00
  %31 = fmul nsz float %28, 5.000000e-01
  %32 = fsub nsz float %31, %30
  %33 = fdiv nsz float %29, 6.000000e+00
  %34 = fsub nsz float %32, %33
  store float %34, ptr %8, align 16, !tbaa !49
  %35 = fmul nsz float %1, 5.000000e-01
  %36 = fsub nsz float 1.000000e+00, %35
  %37 = fsub nsz float %36, %28
  %38 = fmul nsz float %29, 5.000000e-01
  %39 = fadd nsz float %37, %38
  %40 = getelementptr inbounds nuw i8, ptr %8, i64 4
  store float %39, ptr %40, align 4, !tbaa !49
  %41 = fadd nsz float %1, %31
  %42 = fsub nsz float %41, %38
  %43 = getelementptr inbounds nuw i8, ptr %8, i64 8
  store float %42, ptr %43, align 8, !tbaa !49
  %44 = fdiv nsz float %1, 6.000000e+00
  %45 = fsub nsz float %33, %44
  %46 = getelementptr inbounds nuw i8, ptr %8, i64 12
  store float %45, ptr %46, align 4, !tbaa !49
  %47 = getelementptr inbounds nuw i8, ptr %2, i64 32
  br label %.preheader

.preheader:                                       ; preds = %6, %52
  %indvars.iv26 = phi i64 [ 0, %6 ], [ %indvars.iv.next27, %52 ]
  %48 = shl nuw nsw i64 %indvars.iv26, 2
  %49 = getelementptr inbounds nuw [4 x float], ptr %8, i64 0, i64 %indvars.iv26
  %50 = load float, ptr %49, align 4, !tbaa !49
  br label %53

51:                                               ; preds = %52
  call void @llvm.lifetime.end.p0(i64 16, ptr nonnull %8) #16
  call void @llvm.lifetime.end.p0(i64 16, ptr nonnull %7) #16
  ret void

52:                                               ; preds = %53
  %indvars.iv.next27 = add nuw nsw i64 %indvars.iv26, 1
  %exitcond29.not = icmp eq i64 %indvars.iv.next27, 4
  br i1 %exitcond29.not, label %51, label %.preheader, !llvm.loop !155

53:                                               ; preds = %.preheader, %53
  %indvars.iv = phi i64 [ 0, %.preheader ], [ %indvars.iv.next, %53 ]
  %54 = getelementptr inbounds nuw [4 x [4 x i16]], ptr %2, i64 0, i64 %indvars.iv26, i64 %indvars.iv
  %55 = load i16, ptr %54, align 2, !tbaa !15
  %56 = add nuw nsw i64 %indvars.iv, %48
  %57 = getelementptr inbounds nuw i16, ptr %3, i64 %56
  store i16 %55, ptr %57, align 2, !tbaa !15
  %58 = getelementptr inbounds nuw [4 x [4 x i16]], ptr %47, i64 0, i64 %indvars.iv26, i64 %indvars.iv
  %59 = load i16, ptr %58, align 2, !tbaa !15
  %60 = getelementptr inbounds nuw i16, ptr %4, i64 %56
  store i16 %59, ptr %60, align 2, !tbaa !15
  %61 = getelementptr inbounds nuw [4 x float], ptr %7, i64 0, i64 %indvars.iv
  %62 = load float, ptr %61, align 4, !tbaa !49
  %63 = fmul nsz float %62, %50
  %64 = fmul nsz float %63, 1.638500e+04
  %65 = tail call i64 @llvm.lrint.i64.f32(float %64)
  %66 = trunc i64 %65 to i16
  %67 = getelementptr inbounds nuw i16, ptr %5, i64 %56
  store i16 %66, ptr %67, align 2, !tbaa !15
  %indvars.iv.next = add nuw nsw i64 %indvars.iv, 1
  %exitcond.not = icmp eq i64 %indvars.iv.next, 4
  br i1 %exitcond.not, label %52, label %53, !llvm.loop !156
}